; Function Attrs: nounwind uwtable
define dso_local void @_serverAssertPrintObject(ptr nocapture noundef readonly %o) local_unnamed_addr #0 {
entry:
  %call.i = tail call i32 @pthread_mutex_lock(ptr noundef nonnull @bug_report_start_mutex) #22
  %.b.i = load i1, ptr @bug_report_start, align 4
  br i1 %.b.i, label %bugReportStart.exit, label %if.then.i

if.then.i:                                        ; preds = %entry
  tail call void @serverLogRaw(i32 noundef 1027, ptr noundef nonnull @.str.248) #22
  store i1 true, ptr @bug_report_start, align 4
  br label %bugReportStart.exit

bugReportStart.exit:                              ; preds = %entry, %if.then.i
  %call1.i = tail call i32 @pthread_mutex_unlock(ptr noundef nonnull @bug_report_start_mutex) #22
  %0 = load i32, ptr getelementptr inbounds (%struct.redisServer, ptr @server, i64 0, i32 156), align 8
  %cmp = icmp sgt i32 %0, 3
  br i1 %cmp, label %serverLogObjectDebugInfo.exit, label %do.end

do.end:                                           ; preds = %bugReportStart.exit
  tail call void (i32, ptr, ...) @_serverLog(i32 noundef 3, ptr noundef nonnull @.str.244) #22
  %.pr = load i32, ptr getelementptr inbounds (%struct.redisServer, ptr @server, i64 0, i32 156), align 8
  %cmp.i = icmp sgt i32 %.pr, 3
  br i1 %cmp.i, label %serverLogObjectDebugInfo.exit, label %do.body1.i

do.body1.i:                                       ; preds = %do.end
  %bf.load.i = load i32, ptr %o, align 8
  %bf.clear.i = and i32 %bf.load.i, 15
  tail call void (i32, ptr, ...) @_serverLog(i32 noundef 3, ptr noundef nonnull @.str.241, i32 noundef %bf.clear.i) #22
  %.pr.i = load i32, ptr getelementptr inbounds (%struct.redisServer, ptr @server, i64 0, i32 156), align 8
  %cmp2.i = icmp sgt i32 %.pr.i, 3
  br i1 %cmp2.i, label %serverLogObjectDebugInfo.exit, label %do.body8.i

do.body8.i:                                       ; preds = %do.body1.i
  %bf.load5.i = load i32, ptr %o, align 8
  %bf.lshr.i = lshr i32 %bf.load5.i, 4
  %bf.clear6.i = and i32 %bf.lshr.i, 15
  tail call void (i32, ptr, ...) @_serverLog(i32 noundef 3, ptr noundef nonnull @.str.242, i32 noundef %bf.clear6.i) #22
  %.pr4.i = load i32, ptr getelementptr inbounds (%struct.redisServer, ptr @server, i64 0, i32 156), align 8
  %cmp9.i = icmp sgt i32 %.pr4.i, 3
  br i1 %cmp9.i, label %serverLogObjectDebugInfo.exit, label %if.end11.i

if.end11.i:                                       ; preds = %do.body8.i
  %refcount.i = getelementptr inbounds i8, ptr %o, i64 4
  %1 = load i32, ptr %refcount.i, align 4
  tail call void (i32, ptr, ...) @_serverLog(i32 noundef 3, ptr noundef nonnull @.str.243, i32 noundef %1) #22
  br label %serverLogObjectDebugInfo.exit

serverLogObjectDebugInfo.exit:                    ; preds = %bugReportStart.exit, %do.end, %do.body1.i, %do.body8.i, %if.end11.i
  ret void
}